target datalayout = "e-m:e-p270:32:32-p271:32:32-p272:64:64-i64:64-i128:128-f80:128-n8:16:32:64-S128"
target triple = "x86_64-unknown-linux-gnu"

%"class.Imf_3_2::AcesOutputFile" = type { ptr, ptr }

@_ZTVN7Imf_3_214AcesOutputFileE = unnamed_addr constant { [4 x ptr] } { [4 x ptr] [ptr null, ptr @_ZTIN7Imf_3_214AcesOutputFileE, ptr @_ZN7Imf_3_214AcesOutputFileD1Ev, ptr @_ZN7Imf_3_214AcesOutputFileD0Ev] }, align 8
@_ZN7Imf_3_214AcesOutputFile4DataD1Ev = hidden unnamed_addr alias void (ptr), ptr @_ZN7Imf_3_214AcesOutputFile4DataD2Ev

; Function Attrs: mustprogress nounwind uwtable
define void @_ZN7Imf_3_214AcesOutputFileD2Ev(ptr noundef nonnull align 8 dereferenceable(16) %this) unnamed_addr #5 align 2 {
entry:
  %this.addr = alloca ptr, align 8
  store ptr %this, ptr %this.addr, align 8
  %this1 = load ptr, ptr %this.addr, align 8
  store ptr getelementptr inbounds ({ [4 x ptr] }, ptr @_ZTVN7Imf_3_214AcesOutputFileE, i32 0, i32 0, i32 2), ptr %this1, align 8
  %_data = getelementptr inbounds %"class.Imf_3_2::AcesOutputFile", ptr %this1, i32 0, i32 1
  %0 = load ptr, ptr %_data, align 8
  %isnull = icmp eq ptr %0, null
  br i1 %isnull, label %delete.end, label %delete.notnull

delete.notnull:                                   ; preds = %entry
  call void @_ZN7Imf_3_214AcesOutputFile4DataD1Ev(ptr noundef nonnull align 8 dereferenceable(8) %0) #3
  call void @_ZdlPv(ptr noundef %0) #12
  br label %delete.end

delete.end:                                       ; preds = %delete.notnull, %entry
  ret void
}