; Function Attrs: mustprogress nounwind uwtable
define void @_ZN7Imf_3_214AcesOutputFileD2Ev(ptr nocapture noundef nonnull align 8 dereferenceable(16) %this) unnamed_addr #5 align 2 {
entry:
  store ptr getelementptr inbounds ({ [4 x ptr] }, ptr @_ZTVN7Imf_3_214AcesOutputFileE, i64 0, i32 0, i64 2), ptr %this, align 8
  %_data = getelementptr inbounds i8, ptr %this, i64 8
  %0 = load ptr, ptr %_data, align 8
  %isnull = icmp eq ptr %0, null
  br i1 %isnull, label %delete.end, label %delete.notnull

delete.notnull:                                   ; preds = %entry
  %1 = load ptr, ptr %0, align 8
  %isnull.i = icmp eq ptr %1, null
  br i1 %isnull.i, label %_ZN7Imf_3_214AcesOutputFile4DataD2Ev.exit, label %delete.notnull.i

delete.notnull.i:                                 ; preds = %delete.notnull
  %vtable.i = load ptr, ptr %1, align 8
  %vfn.i = getelementptr inbounds i8, ptr %vtable.i, i64 8
  %2 = load ptr, ptr %vfn.i, align 8
  tail call void %2(ptr noundef nonnull align 8 dereferenceable(24) %1) #13
  br label %_ZN7Imf_3_214AcesOutputFile4DataD2Ev.exit

_ZN7Imf_3_214AcesOutputFile4DataD2Ev.exit:        ; preds = %delete.notnull, %delete.notnull.i
  tail call void @_ZdlPv(ptr noundef nonnull %0) #16
  br label %delete.end

delete.end:                                       ; preds = %_ZN7Imf_3_214AcesOutputFile4DataD2Ev.exit, %entry
  ret void
}